Certificate:
    Data:
        Version: 3 (0x2)
        Serial Number:
            be:e5:bb:c3:29:f0:fa:d4:ac:1f:87:91:4d:d7:34:c2
        Signature Algorithm: sha256WithRSAEncryption
        Issuer: C=DE, ST=NRW, L=Euskirchen, O=ts-react-playground, OU=ts-react-playground ca, CN=ts-react-playground/emailAddress=ca@ts-react-playground
        Validity
            Not Before: Jun 19 15:40:06 2020 GMT
            Not After : Jun 17 15:40:06 2030 GMT
        Subject: C=DE, ST=NRW, L=Euskirchen, O=ts-react-playground, OU=ts-react-playground ca, CN=development.fritz.box/emailAddress=ca@ts-react-playground
        Subject Public Key Info:
            Public Key Algorithm: rsaEncryption
                RSA Public-Key: (2048 bit)
                Modulus:
                    00:f1:12:9a:ba:e6:02:a2:ef:f1:20:52:fa:bd:9f:
                    f7:5a:f4:ab:77:b4:b0:28:7f:00:32:e2:0d:fd:43:
                    88:a0:d5:28:ed:a1:e8:a4:21:0c:c1:9c:98:b8:7c:
                    d6:21:f9:c9:6f:a4:f2:c8:e9:95:aa:fe:fa:ee:b9:
                    06:a3:fa:2b:1d:2e:cc:df:61:1e:ae:24:7d:49:70:
                    30:01:bd:21:01:ff:d4:ab:be:08:2d:47:91:36:4a:
                    43:be:37:07:38:4c:79:ae:17:b1:e4:af:0f:b4:db:
                    6c:62:3e:45:20:b1:d4:ee:53:b0:47:0d:68:dc:c3:
                    b9:29:60:d4:8e:ee:32:38:79:48:e8:53:2c:4c:3b:
                    c7:2a:dd:e9:f6:5f:aa:48:6a:3c:ed:71:10:a2:d6:
                    c7:f1:20:4a:74:c4:04:67:0b:b2:5d:f2:94:6b:62:
                    e7:41:c3:e9:d5:66:6d:19:c2:d0:ef:7e:a4:20:e8:
                    48:c1:ee:9e:57:07:2c:1a:75:80:4a:e6:d1:94:4e:
                    7c:b6:b1:28:81:e8:b4:3c:87:a2:2a:0b:25:0f:a3:
                    8a:66:0a:eb:5f:dd:ba:31:99:54:74:67:ce:21:08:
                    ee:37:17:bc:29:e3:b6:e7:57:16:15:a7:ae:da:84:
                    da:2f:af:30:f9:d5:42:01:a3:37:0f:b2:06:41:62:
                    08:ef
                Exponent: 65537 (0x10001)
        X509v3 extensions:
            X509v3 Basic Constraints: 
                CA:FALSE
            X509v3 Subject Key Identifier: 
                15:91:D8:C1:40:66:DB:F0:A6:81:B0:D5:33:91:48:CC:1F:41:1E:ED
            X509v3 Authority Key Identifier: 
                keyid:D2:38:28:48:52:2D:0F:E7:B9:B1:C9:14:63:08:95:B9:EB:E0:81:06
                DirName:/C=DE/ST=NRW/L=Euskirchen/O=ts-react-playground/OU=ts-react-playground ca/CN=ts-react-playground/emailAddress=ca@ts-react-playground
                serial:4F:87:B8:BB:A5:3D:BE:CC:43:2F:6D:95:AE:DD:4D:04:42:7B:E6:E4

            X509v3 Extended Key Usage: 
                TLS Web Server Authentication
            X509v3 Key Usage: 
                Digital Signature, Key Encipherment
            X509v3 Subject Alternative Name: 
                DNS:*.fritz.box, DNS:*.development.fritz.box, DNS:localhost, DNS:127.0.0.1, DNS:::1
    Signature Algorithm: sha256WithRSAEncryption
         30:60:42:55:1b:b3:28:84:9f:d9:66:07:8d:e2:ca:17:e6:e6:
         21:53:24:ff:b4:db:be:9b:9c:d7:3f:55:8b:0b:27:54:e8:b7:
         b3:5b:04:59:96:2d:29:63:45:33:45:b6:8b:67:b2:5d:80:a4:
         df:17:9f:fd:3b:2c:1a:1f:4a:b8:e8:b3:53:fa:c2:2e:26:16:
         f3:19:5c:5e:f5:cd:40:97:d7:31:02:5f:a7:30:35:57:bd:f9:
         2b:0e:8a:4b:3e:b4:46:6e:99:eb:41:ab:3a:13:71:0b:18:73:
         ad:dc:f1:43:e0:cb:98:64:05:e3:5b:24:93:17:bd:09:14:36:
         dd:c2:1b:56:d9:7c:a4:27:75:9b:d1:bf:aa:e0:85:b1:97:90:
         14:d5:e1:62:14:e1:d7:d9:27:e7:d3:5a:53:d2:e6:61:62:8f:
         9b:d2:06:39:98:12:92:df:56:ee:3d:1a:42:1c:56:92:7d:53:
         58:e0:81:9e:8f:2a:e6:d7:cf:c2:a8:b0:e7:48:3c:61:69:e9:
         99:6c:af:63:eb:3e:2e:e7:b8:b1:a4:12:56:ca:61:29:df:ef:
         41:ad:7e:04:37:7c:af:23:d5:30:d1:1a:26:8d:76:62:00:b8:
         ca:91:21:23:f4:4f:8f:99:17:b9:56:b7:21:47:d7:f9:86:3b:
         ca:3d:8b:1d
-----BEGIN CERTIFICATE-----
MIIFjDCCBHSgAwIBAgIRAL7lu8Mp8PrUrB+HkU3XNMIwDQYJKoZIhvcNAQELBQAw
gbQxCzAJBgNVBAYTAkRFMQwwCgYDVQQIDANOUlcxEzARBgNVBAcMCkV1c2tpcmNo
ZW4xHDAaBgNVBAoME3RzLXJlYWN0LXBsYXlncm91bmQxHzAdBgNVBAsMFnRzLXJl
YWN0LXBsYXlncm91bmQgY2ExHDAaBgNVBAMME3RzLXJlYWN0LXBsYXlncm91bmQx
JTAjBgkqhkiG9w0BCQEWFmNhQHRzLXJlYWN0LXBsYXlncm91bmQwHhcNMjAwNjE5
MTU0MDA2WhcNMzAwNjE3MTU0MDA2WjCBtjELMAkGA1UEBhMCREUxDDAKBgNVBAgM
A05SVzETMBEGA1UEBwwKRXVza2lyY2hlbjEcMBoGA1UECgwTdHMtcmVhY3QtcGxh
eWdyb3VuZDEfMB0GA1UECwwWdHMtcmVhY3QtcGxheWdyb3VuZCBjYTEeMBwGA1UE
AwwVZGV2ZWxvcG1lbnQuZnJpdHouYm94MSUwIwYJKoZIhvcNAQkBFhZjYUB0cy1y
ZWFjdC1wbGF5Z3JvdW5kMIIBIjANBgkqhkiG9w0BAQEFAAOCAQ8AMIIBCgKCAQEA
8RKauuYCou/xIFL6vZ/3WvSrd7SwKH8AMuIN/UOIoNUo7aHopCEMwZyYuHzWIfnJ
b6TyyOmVqv767rkGo/orHS7M32EeriR9SXAwAb0hAf/Uq74ILUeRNkpDvjcHOEx5
rhex5K8PtNtsYj5FILHU7lOwRw1o3MO5KWDUju4yOHlI6FMsTDvHKt3p9l+qSGo8
7XEQotbH8SBKdMQEZwuyXfKUa2LnQcPp1WZtGcLQ736kIOhIwe6eVwcsGnWASubR
lE58trEogei0PIeiKgslD6OKZgrrX926MZlUdGfOIQjuNxe8KeO251cWFaeu2oTa
L68w+dVCAaM3D7IGQWII7wIDAQABo4IBkzCCAY8wCQYDVR0TBAIwADAdBgNVHQ4E
FgQUFZHYwUBm2/CmgbDVM5FIzB9BHu0wgfQGA1UdIwSB7DCB6YAU0jgoSFItD+e5
sckUYwiVuevggQahgbqkgbcwgbQxCzAJBgNVBAYTAkRFMQwwCgYDVQQIDANOUlcx
EzARBgNVBAcMCkV1c2tpcmNoZW4xHDAaBgNVBAoME3RzLXJlYWN0LXBsYXlncm91
bmQxHzAdBgNVBAsMFnRzLXJlYWN0LXBsYXlncm91bmQgY2ExHDAaBgNVBAMME3Rz
LXJlYWN0LXBsYXlncm91bmQxJTAjBgkqhkiG9w0BCQEWFmNhQHRzLXJlYWN0LXBs
YXlncm91bmSCFE+HuLulPb7MQy9tla7dTQRCe+bkMBMGA1UdJQQMMAoGCCsGAQUF
BwMBMAsGA1UdDwQEAwIFoDBKBgNVHREEQzBBggsqLmZyaXR6LmJveIIXKi5kZXZl
bG9wbWVudC5mcml0ei5ib3iCCWxvY2FsaG9zdIIJMTI3LjAuMC4xggM6OjEwDQYJ
KoZIhvcNAQELBQADggEBADBgQlUbsyiEn9lmB43iyhfm5iFTJP+0276bnNc/VYsL
J1Tot7NbBFmWLSljRTNFtotnsl2ApN8Xn/07LBofSrjos1P6wi4mFvMZXF71zUCX
1zECX6cwNVe9+SsOiks+tEZumetBqzoTcQsYc63c8UPgy5hkBeNbJJMXvQkUNt3C
G1bZfKQndZvRv6rghbGXkBTV4WIU4dfZJ+fTWlPS5mFij5vSBjmYEpLfVu49GkIc
VpJ9U1jggZ6PKubXz8KosOdIPGFp6Zlsr2PrPi7nuLGkElbKYSnf70GtfgQ3fK8j
1TDRGiaNdmIAuMqRISP0T4+ZF7lWtyFH1/mGO8o9ix0=
-----END CERTIFICATE-----
